target datalayout = "e-m:e-p270:32:32-p271:32:32-p272:64:64-i64:64-i128:128-f80:128-n8:16:32:64-S128"
target triple = "x86_64-pc-linux-gnu"

@.str.370 = private unnamed_addr constant [23 x i8] c"No IPv4 address given.\00", align 1

; Function Attrs: null_pointer_is_valid sspstrong uwtable
define internal zeroext i1 @rsakeys_uat_fld_ip_chk_cb(ptr noundef %0, ptr noundef %1, i32 noundef %2, ptr noundef %3, ptr noundef %4, ptr noundef %5) #0 {
  %7 = alloca i1, align 1
  %8 = alloca ptr, align 8
  %9 = alloca ptr, align 8
  %10 = alloca i32, align 4
  %11 = alloca ptr, align 8
  %12 = alloca ptr, align 8
  %13 = alloca ptr, align 8
  store ptr %0, ptr %8, align 8
  store ptr %1, ptr %9, align 8
  store i32 %2, ptr %10, align 4
  store ptr %3, ptr %11, align 8
  store ptr %4, ptr %12, align 8
  store ptr %5, ptr %13, align 8
  %14 = load ptr, ptr %9, align 8
  %15 = icmp ne ptr %14, null
  br i1 %15, label %16, label %26

16:                                               ; preds = %6
  %17 = load ptr, ptr %9, align 8
  %18 = call i32 @g_hostname_is_ip_address(ptr noundef %17)
  %19 = icmp ne i32 %18, 0
  br i1 %19, label %20, label %26

20:                                               ; preds = %16
  %21 = load ptr, ptr %9, align 8
  %22 = call ptr @strchr(ptr noundef %21, i32 noundef 46) #18
  %23 = icmp ne ptr %22, null
  br i1 %23, label %24, label %26

24:                                               ; preds = %20
  %25 = load ptr, ptr %13, align 8
  store ptr null, ptr %25, align 8
  store i1 true, ptr %7, align 1
  br label %29

26:                                               ; preds = %20, %16, %6
  %27 = call noalias ptr (ptr, ptr, ...) @wmem_strdup_printf(ptr noundef null, ptr noundef @.str.370)
  %28 = load ptr, ptr %13, align 8
  store ptr %27, ptr %28, align 8
  store i1 false, ptr %7, align 1
  br label %29

29:                                               ; preds = %26, %24
  %30 = load i1, ptr %7, align 1
  ret i1 %30
}