; Function Attrs: null_pointer_is_valid sspstrong uwtable
define internal noundef zeroext i1 @rsakeys_uat_fld_ip_chk_cb(ptr readnone captures(none) %0, ptr noundef %1, i32 %2, ptr readnone captures(none) %3, ptr readnone captures(none) %4, ptr noundef writeonly captures(none) initializes((0, 8)) %5) #0 {
  %.not = icmp eq ptr %1, null
  br i1 %.not, label %11, label %7

7:                                                ; preds = %6
  %8 = tail call i32 @g_hostname_is_ip_address(ptr noundef nonnull %1)
  %.not7 = icmp eq i32 %8, 0
  br i1 %.not7, label %11, label %9

9:                                                ; preds = %7
  %10 = tail call ptr @strchr(ptr noundef nonnull dereferenceable(1) %1, i32 noundef 46) #15
  %.not8 = icmp eq ptr %10, null
  br i1 %.not8, label %11, label %13

11:                                               ; preds = %9, %7, %6
  %12 = tail call noalias ptr (ptr, ptr, ...) @wmem_strdup_printf(ptr noundef null, ptr noundef nonnull @.str.370)
  br label %13

13:                                               ; preds = %9, %11
  %storemerge = phi ptr [ %12, %11 ], [ null, %9 ]
  %.0 = phi i1 [ false, %11 ], [ true, %9 ]
  store ptr %storemerge, ptr %5, align 8
  ret i1 %.0
}